; Function Attrs: mustprogress uwtable
define hidden noundef nonnull align 8 dereferenceable(8) ptr @_ZN11ast_pp_util12display_exprERSoP4exprb(ptr noundef nonnull align 8 dereferenceable(1232) %this, ptr noundef nonnull returned align 8 dereferenceable(8) %out, ptr noundef %f, i1 noundef zeroext %neat) local_unnamed_addr #3 align 2 personality ptr @__gxx_personality_v0 {
entry:
  %ref.tmp = alloca %class.params_ref, align 8
  %ll_smt2_pp = alloca %class.ast_smt_pp, align 8
  br i1 %neat, label %if.then, label %if.else

if.then:                                          ; preds = %entry
  %m_env = getelementptr inbounds i8, ptr %this, i64 32
  store ptr null, ptr %ref.tmp, align 8
  %call = invoke noundef nonnull align 8 dereferenceable(8) ptr @_Z11ast_smt2_ppRSoP4exprR19smt2_pp_environmentRK10params_refjjPKc(ptr noundef nonnull align 8 dereferenceable(8) %out, ptr noundef %f, ptr noundef nonnull align 8 dereferenceable(56) %m_env, ptr noundef nonnull align 8 dereferenceable(8) %ref.tmp, i32 noundef 0, i32 noundef 0, ptr noundef null)
          to label %invoke.cont unwind label %lpad

invoke.cont:                                      ; preds = %if.then
  call void @_ZN10params_refD1Ev(ptr noundef nonnull align 8 dereferenceable(8) %ref.tmp) #14
  br label %if.end

lpad:                                             ; preds = %if.then
  %0 = landingpad { ptr, i32 }
          cleanup
  call void @_ZN10params_refD1Ev(ptr noundef nonnull align 8 dereferenceable(8) %ref.tmp) #14
  br label %eh.resume

if.else:                                          ; preds = %entry
  %1 = load ptr, ptr %this, align 8
  call void @_ZN10ast_smt_ppC1ER11ast_manager(ptr noundef nonnull align 8 dereferenceable(137) %ll_smt2_pp, ptr noundef nonnull align 8 dereferenceable(976) %1)
  invoke void @_ZN10ast_smt_pp17display_expr_smt2ERSoP4exprjjPKPKc(ptr noundef nonnull align 8 dereferenceable(137) %ll_smt2_pp, ptr noundef nonnull align 8 dereferenceable(8) %out, ptr noundef %f, i32 noundef 0, i32 noundef 0, ptr noundef null)
          to label %invoke.cont3 unwind label %lpad2

invoke.cont3:                                     ; preds = %if.else
  call void @_ZN10ast_smt_ppD2Ev(ptr noundef nonnull align 8 dereferenceable(137) %ll_smt2_pp) #14
  br label %if.end

lpad2:                                            ; preds = %if.else
  %2 = landingpad { ptr, i32 }
          cleanup
  call void @_ZN10ast_smt_ppD2Ev(ptr noundef nonnull align 8 dereferenceable(137) %ll_smt2_pp) #14
  br label %eh.resume

if.end:                                           ; preds = %invoke.cont3, %invoke.cont
  ret ptr %out

eh.resume:                                        ; preds = %lpad2, %lpad
  %.pn = phi { ptr, i32 } [ %0, %lpad ], [ %2, %lpad2 ]
  resume { ptr, i32 } %.pn
}